; Function Attrs: mustprogress uwtable
define void @_ZNK15ManufTableModel10headerDataEiN2Qt11OrientationEi(ptr dead_on_unwind noalias writable sret(%class.QVariant) align 8 %0, ptr nocapture noundef nonnull readnone align 8 dereferenceable(40) %1, i32 noundef %2, i32 noundef %3, i32 noundef %4) unnamed_addr #0 align 2 personality ptr @__gxx_personality_v0 {
  %6 = alloca %class.QString, align 8
  %7 = alloca %class.QString, align 8
  %8 = alloca %class.QString, align 8
  %.not = icmp eq i32 %4, 0
  br i1 %.not, label %11, label %9

9:                                                ; preds = %5
  tail call void @llvm.memset.p0.i64(ptr noundef nonnull align 8 dereferenceable(24) %0, i8 0, i64 24, i1 false)
  %10 = getelementptr inbounds i8, ptr %0, i64 24
  store i64 2, ptr %10, align 8
  br label %_ZN7QStringD2Ev.exit

11:                                               ; preds = %5
  %12 = icmp eq i32 %3, 1
  br i1 %12, label %13, label %44

13:                                               ; preds = %11
  switch i32 %2, label %44 [
    i32 0, label %14
    i32 1, label %24
    i32 2, label %34
  ]

14:                                               ; preds = %13
  call void @_ZNK11QMetaObject2trEPKcS1_i(ptr dead_on_unwind nonnull writable sret(%class.QString) align 8 %6, ptr noundef nonnull align 8 dereferenceable(56) @_ZN15ManufTableModel16staticMetaObjectE, ptr noundef nonnull @.str.3, ptr noundef null, i32 noundef -1)
  invoke void @_ZN8QVariantC1ERK7QString(ptr noundef nonnull align 8 dereferenceable(32) %0, ptr noundef nonnull align 8 dereferenceable(24) %6)
          to label %15 unwind label %20

15:                                               ; preds = %14
  %16 = load ptr, ptr %6, align 8
  %.not.i.i.i = icmp eq ptr %16, null
  br i1 %.not.i.i.i, label %_ZN7QStringD2Ev.exit, label %_ZN17QArrayDataPointerIDsE5derefEv.exit.i.i

_ZN17QArrayDataPointerIDsE5derefEv.exit.i.i:      ; preds = %15
  %17 = atomicrmw sub ptr %16, i32 1 seq_cst, align 4
  %.not.i.i = icmp eq i32 %17, 1
  br i1 %.not.i.i, label %18, label %_ZN7QStringD2Ev.exit

18:                                               ; preds = %_ZN17QArrayDataPointerIDsE5derefEv.exit.i.i
  %19 = load ptr, ptr %6, align 8
  call void @_ZN10QArrayData10deallocateEPS_xx(ptr noundef %19, i64 noundef 2, i64 noundef 8) #19
  br label %_ZN7QStringD2Ev.exit

20:                                               ; preds = %14
  %21 = landingpad { ptr, i32 }
          cleanup
  %22 = load ptr, ptr %6, align 8
  %.not.i.i.i6 = icmp eq ptr %22, null
  br i1 %.not.i.i.i6, label %_ZN7QStringD2Ev.exit9, label %_ZN17QArrayDataPointerIDsE5derefEv.exit.i.i7

_ZN17QArrayDataPointerIDsE5derefEv.exit.i.i7:     ; preds = %20
  %23 = atomicrmw sub ptr %22, i32 1 seq_cst, align 4
  %.not.i.i8 = icmp eq i32 %23, 1
  br i1 %.not.i.i8, label %_ZN7QStringD2Ev.exit9.sink.split, label %_ZN7QStringD2Ev.exit9

24:                                               ; preds = %13
  call void @_ZNK11QMetaObject2trEPKcS1_i(ptr dead_on_unwind nonnull writable sret(%class.QString) align 8 %7, ptr noundef nonnull align 8 dereferenceable(56) @_ZN15ManufTableModel16staticMetaObjectE, ptr noundef nonnull @.str.4, ptr noundef null, i32 noundef -1)
  invoke void @_ZN8QVariantC1ERK7QString(ptr noundef nonnull align 8 dereferenceable(32) %0, ptr noundef nonnull align 8 dereferenceable(24) %7)
          to label %25 unwind label %30

25:                                               ; preds = %24
  %26 = load ptr, ptr %7, align 8
  %.not.i.i.i10 = icmp eq ptr %26, null
  br i1 %.not.i.i.i10, label %_ZN7QStringD2Ev.exit, label %_ZN17QArrayDataPointerIDsE5derefEv.exit.i.i11

_ZN17QArrayDataPointerIDsE5derefEv.exit.i.i11:    ; preds = %25
  %27 = atomicrmw sub ptr %26, i32 1 seq_cst, align 4
  %.not.i.i12 = icmp eq i32 %27, 1
  br i1 %.not.i.i12, label %28, label %_ZN7QStringD2Ev.exit

28:                                               ; preds = %_ZN17QArrayDataPointerIDsE5derefEv.exit.i.i11
  %29 = load ptr, ptr %7, align 8
  call void @_ZN10QArrayData10deallocateEPS_xx(ptr noundef %29, i64 noundef 2, i64 noundef 8) #19
  br label %_ZN7QStringD2Ev.exit

30:                                               ; preds = %24
  %31 = landingpad { ptr, i32 }
          cleanup
  %32 = load ptr, ptr %7, align 8
  %.not.i.i.i14 = icmp eq ptr %32, null
  br i1 %.not.i.i.i14, label %_ZN7QStringD2Ev.exit9, label %_ZN17QArrayDataPointerIDsE5derefEv.exit.i.i15

_ZN17QArrayDataPointerIDsE5derefEv.exit.i.i15:    ; preds = %30
  %33 = atomicrmw sub ptr %32, i32 1 seq_cst, align 4
  %.not.i.i16 = icmp eq i32 %33, 1
  br i1 %.not.i.i16, label %_ZN7QStringD2Ev.exit9.sink.split, label %_ZN7QStringD2Ev.exit9

34:                                               ; preds = %13
  call void @_ZNK11QMetaObject2trEPKcS1_i(ptr dead_on_unwind nonnull writable sret(%class.QString) align 8 %8, ptr noundef nonnull align 8 dereferenceable(56) @_ZN15ManufTableModel16staticMetaObjectE, ptr noundef nonnull @.str.5, ptr noundef null, i32 noundef -1)
  invoke void @_ZN8QVariantC1ERK7QString(ptr noundef nonnull align 8 dereferenceable(32) %0, ptr noundef nonnull align 8 dereferenceable(24) %8)
          to label %35 unwind label %40

35:                                               ; preds = %34
  %36 = load ptr, ptr %8, align 8
  %.not.i.i.i18 = icmp eq ptr %36, null
  br i1 %.not.i.i.i18, label %_ZN7QStringD2Ev.exit, label %_ZN17QArrayDataPointerIDsE5derefEv.exit.i.i19

_ZN17QArrayDataPointerIDsE5derefEv.exit.i.i19:    ; preds = %35
  %37 = atomicrmw sub ptr %36, i32 1 seq_cst, align 4
  %.not.i.i20 = icmp eq i32 %37, 1
  br i1 %.not.i.i20, label %38, label %_ZN7QStringD2Ev.exit

38:                                               ; preds = %_ZN17QArrayDataPointerIDsE5derefEv.exit.i.i19
  %39 = load ptr, ptr %8, align 8
  call void @_ZN10QArrayData10deallocateEPS_xx(ptr noundef %39, i64 noundef 2, i64 noundef 8) #19
  br label %_ZN7QStringD2Ev.exit

40:                                               ; preds = %34
  %41 = landingpad { ptr, i32 }
          cleanup
  %42 = load ptr, ptr %8, align 8
  %.not.i.i.i22 = icmp eq ptr %42, null
  br i1 %.not.i.i.i22, label %_ZN7QStringD2Ev.exit9, label %_ZN17QArrayDataPointerIDsE5derefEv.exit.i.i23

_ZN17QArrayDataPointerIDsE5derefEv.exit.i.i23:    ; preds = %40
  %43 = atomicrmw sub ptr %42, i32 1 seq_cst, align 4
  %.not.i.i24 = icmp eq i32 %43, 1
  br i1 %.not.i.i24, label %_ZN7QStringD2Ev.exit9.sink.split, label %_ZN7QStringD2Ev.exit9

44:                                               ; preds = %13, %11
  tail call void @llvm.memset.p0.i64(ptr noundef nonnull align 8 dereferenceable(24) %0, i8 0, i64 24, i1 false)
  %45 = getelementptr inbounds i8, ptr %0, i64 24
  store i64 2, ptr %45, align 8
  br label %_ZN7QStringD2Ev.exit

_ZN7QStringD2Ev.exit:                             ; preds = %38, %_ZN17QArrayDataPointerIDsE5derefEv.exit.i.i19, %35, %28, %_ZN17QArrayDataPointerIDsE5derefEv.exit.i.i11, %25, %18, %_ZN17QArrayDataPointerIDsE5derefEv.exit.i.i, %15, %44, %9
  ret void

_ZN7QStringD2Ev.exit9.sink.split:                 ; preds = %_ZN17QArrayDataPointerIDsE5derefEv.exit.i.i23, %_ZN17QArrayDataPointerIDsE5derefEv.exit.i.i15, %_ZN17QArrayDataPointerIDsE5derefEv.exit.i.i7
  %.sink.in = phi ptr [ %6, %_ZN17QArrayDataPointerIDsE5derefEv.exit.i.i7 ], [ %7, %_ZN17QArrayDataPointerIDsE5derefEv.exit.i.i15 ], [ %8, %_ZN17QArrayDataPointerIDsE5derefEv.exit.i.i23 ]
  %.pn.ph = phi { ptr, i32 } [ %21, %_ZN17QArrayDataPointerIDsE5derefEv.exit.i.i7 ], [ %31, %_ZN17QArrayDataPointerIDsE5derefEv.exit.i.i15 ], [ %41, %_ZN17QArrayDataPointerIDsE5derefEv.exit.i.i23 ]
  %.sink = load ptr, ptr %.sink.in, align 8
  call void @_ZN10QArrayData10deallocateEPS_xx(ptr noundef %.sink, i64 noundef 2, i64 noundef 8) #19
  br label %_ZN7QStringD2Ev.exit9

_ZN7QStringD2Ev.exit9:                            ; preds = %_ZN7QStringD2Ev.exit9.sink.split, %_ZN17QArrayDataPointerIDsE5derefEv.exit.i.i23, %40, %_ZN17QArrayDataPointerIDsE5derefEv.exit.i.i15, %30, %_ZN17QArrayDataPointerIDsE5derefEv.exit.i.i7, %20
  %.pn = phi { ptr, i32 } [ %21, %20 ], [ %21, %_ZN17QArrayDataPointerIDsE5derefEv.exit.i.i7 ], [ %31, %30 ], [ %31, %_ZN17QArrayDataPointerIDsE5derefEv.exit.i.i15 ], [ %41, %40 ], [ %41, %_ZN17QArrayDataPointerIDsE5derefEv.exit.i.i23 ], [ %.pn.ph, %_ZN7QStringD2Ev.exit9.sink.split ]
  resume { ptr, i32 } %.pn
}